#include <math.h>
#include <stdio.h>
#include <stdlib.h>
#include <string.h>

int main()
{
	int year,month,day,i,n=0;
	int monthday[12]={31,28,31,30,31,30,31,31,30,31,30,31};
	scanf("%d%d%d",&year,&month,&day);
    for(i=1;i<month;i++)
	{n=n+monthday[i-1];
	}
	n=n+day;
    
	if(month>2&&(year%4==0&&year%100!=0||year%400==0))
		n=n+1;




	printf("%d\n",n);
	return 0;
}

