; ModuleID = '11/609.c'
source_filename = "11/609.c"
target datalayout = "e-m:e-p270:32:32-p271:32:32-p272:64:64-i64:64-f80:128-n8:16:32:64-S128"
target triple = "x86_64-pc-linux-gnu"

@__const.main.monthday = private unnamed_addr constant [12 x i32] [i32 31, i32 28, i32 31, i32 30, i32 31, i32 30, i32 31, i32 31, i32 30, i32 31, i32 30, i32 31], align 16
@.str = private unnamed_addr constant [7 x i8] c"%d%d%d\00", align 1
@.str.1 = private unnamed_addr constant [4 x i8] c"%d\0A\00", align 1

; Function Attrs: noinline nounwind uwtable
define dso_local i32 @main() #0 {
  %1 = alloca i32, align 4
  %2 = alloca i32, align 4
  %3 = alloca i32, align 4
  %4 = alloca i32, align 4
  %5 = alloca i32, align 4
  %6 = alloca i32, align 4
  %7 = alloca [12 x i32], align 16
  store i32 0, i32* %1, align 4
  store i32 0, i32* %6, align 4
  %8 = bitcast [12 x i32]* %7 to i8*
  call void @llvm.memcpy.p0i8.p0i8.i64(i8* align 16 %8, i8* align 16 bitcast ([12 x i32]* @__const.main.monthday to i8*), i64 48, i1 false)
  %9 = call i32 (i8*, ...) @__isoc99_scanf(i8* getelementptr inbounds ([7 x i8], [7 x i8]* @.str, i64 0, i64 0), i32* %2, i32* %3, i32* %4)
  store i32 1, i32* %5, align 4
  br label %10

10:                                               ; preds = %22, %0
  %11 = load i32, i32* %5, align 4
  %12 = load i32, i32* %3, align 4
  %13 = icmp slt i32 %11, %12
  br i1 %13, label %14, label %25

14:                                               ; preds = %10
  %15 = load i32, i32* %6, align 4
  %16 = load i32, i32* %5, align 4
  %17 = sub nsw i32 %16, 1
  %18 = sext i32 %17 to i64
  %19 = getelementptr inbounds [12 x i32], [12 x i32]* %7, i64 0, i64 %18
  %20 = load i32, i32* %19, align 4
  %21 = add nsw i32 %15, %20
  store i32 %21, i32* %6, align 4
  br label %22

22:                                               ; preds = %14
  %23 = load i32, i32* %5, align 4
  %24 = add nsw i32 %23, 1
  store i32 %24, i32* %5, align 4
  br label %10

25:                                               ; preds = %10
  %26 = load i32, i32* %6, align 4
  %27 = load i32, i32* %4, align 4
  %28 = add nsw i32 %26, %27
  store i32 %28, i32* %6, align 4
  %29 = load i32, i32* %3, align 4
  %30 = icmp sgt i32 %29, 2
  br i1 %30, label %31, label %46

31:                                               ; preds = %25
  %32 = load i32, i32* %2, align 4
  %33 = srem i32 %32, 4
  %34 = icmp eq i32 %33, 0
  br i1 %34, label %35, label %39

35:                                               ; preds = %31
  %36 = load i32, i32* %2, align 4
  %37 = srem i32 %36, 100
  %38 = icmp ne i32 %37, 0
  br i1 %38, label %43, label %39

39:                                               ; preds = %35, %31
  %40 = load i32, i32* %2, align 4
  %41 = srem i32 %40, 400
  %42 = icmp eq i32 %41, 0
  br i1 %42, label %43, label %46

43:                                               ; preds = %39, %35
  %44 = load i32, i32* %6, align 4
  %45 = add nsw i32 %44, 1
  store i32 %45, i32* %6, align 4
  br label %46

46:                                               ; preds = %43, %39, %25
  %47 = load i32, i32* %6, align 4
  %48 = call i32 (i8*, ...) @printf(i8* getelementptr inbounds ([4 x i8], [4 x i8]* @.str.1, i64 0, i64 0), i32 %47)
  ret i32 0
}

; Function Attrs: argmemonly nounwind willreturn
declare void @llvm.memcpy.p0i8.p0i8.i64(i8* noalias nocapture writeonly, i8* noalias nocapture readonly, i64, i1 immarg) #1

declare dso_local i32 @__isoc99_scanf(i8*, ...) #2

declare dso_local i32 @printf(i8*, ...) #2


!llvm.module.flags = !{!0}
!llvm.ident = !{!1}

!0 = !{i32 1, !"wchar_size", i32 4}
!1 = !{!"clang version 10.0.0-4ubuntu1 "}
