; ModuleID = 'source-C-CXX/10/609.c'
source_filename = "source-C-CXX/10/609.c"
target datalayout = "e-m:e-p270:32:32-p271:32:32-p272:64:64-i64:64-f80:128-n8:16:32:64-S128"
target triple = "x86_64-pc-linux-gnu"

@__const.main.monthday = private unnamed_addr constant [12 x i32] [i32 31, i32 28, i32 31, i32 30, i32 31, i32 30, i32 31, i32 31, i32 30, i32 31, i32 30, i32 31], align 16
@.str = private unnamed_addr constant [7 x i8] c"%d%d%d\00", align 1
@.str.1 = private unnamed_addr constant [4 x i8] c"%d\0A\00", align 1

; Function Attrs: nofree nounwind sspstrong uwtable
define dso_local i32 @main() local_unnamed_addr #0 {
  %1 = alloca i32, align 4
  %2 = alloca i32, align 4
  %3 = alloca i32, align 4
  %4 = bitcast i32* %1 to i8*
  call void @llvm.lifetime.start.p0i8(i64 4, i8* nonnull %4) #4
  %5 = bitcast i32* %2 to i8*
  call void @llvm.lifetime.start.p0i8(i64 4, i8* nonnull %5) #4
  %6 = bitcast i32* %3 to i8*
  call void @llvm.lifetime.start.p0i8(i64 4, i8* nonnull %6) #4
  %7 = call i32 (i8*, ...) @__isoc99_scanf(i8* getelementptr inbounds ([7 x i8], [7 x i8]* @.str, i64 0, i64 0), i32* nonnull %1, i32* nonnull %2, i32* nonnull %3)
  %8 = load i32, i32* %2, align 4, !tbaa !5
  %9 = icmp sgt i32 %8, 1
  br i1 %9, label %12, label %10

10:                                               ; preds = %0
  %11 = load i32, i32* %3, align 4, !tbaa !5
  br label %127

12:                                               ; preds = %0
  %13 = zext i32 %8 to i64
  %14 = add nsw i64 %13, -1
  %15 = icmp ult i64 %14, 8
  br i1 %15, label %98, label %16

16:                                               ; preds = %12
  %17 = and i64 %14, -8
  %18 = or i64 %17, 1
  %19 = add nsw i64 %17, -8
  %20 = lshr exact i64 %19, 3
  %21 = add nuw nsw i64 %20, 1
  %22 = and i64 %21, 3
  %23 = icmp ult i64 %19, 24
  br i1 %23, label %69, label %24

24:                                               ; preds = %16
  %25 = and i64 %21, 4611686018427387900
  br label %26

26:                                               ; preds = %26, %24
  %27 = phi i64 [ 0, %24 ], [ %66, %26 ]
  %28 = phi <4 x i32> [ zeroinitializer, %24 ], [ %64, %26 ]
  %29 = phi <4 x i32> [ zeroinitializer, %24 ], [ %65, %26 ]
  %30 = phi i64 [ %25, %24 ], [ %67, %26 ]
  %31 = getelementptr inbounds [12 x i32], [12 x i32]* @__const.main.monthday, i64 0, i64 %27
  %32 = bitcast i32* %31 to <4 x i32>*
  %33 = load <4 x i32>, <4 x i32>* %32, align 16, !tbaa !5
  %34 = getelementptr inbounds i32, i32* %31, i64 4
  %35 = bitcast i32* %34 to <4 x i32>*
  %36 = load <4 x i32>, <4 x i32>* %35, align 16, !tbaa !5
  %37 = add <4 x i32> %33, %28
  %38 = add <4 x i32> %36, %29
  %39 = or i64 %27, 8
  %40 = getelementptr inbounds [12 x i32], [12 x i32]* @__const.main.monthday, i64 0, i64 %39
  %41 = bitcast i32* %40 to <4 x i32>*
  %42 = load <4 x i32>, <4 x i32>* %41, align 16, !tbaa !5
  %43 = getelementptr inbounds i32, i32* %40, i64 4
  %44 = bitcast i32* %43 to <4 x i32>*
  %45 = load <4 x i32>, <4 x i32>* %44, align 16, !tbaa !5
  %46 = add <4 x i32> %42, %37
  %47 = add <4 x i32> %45, %38
  %48 = or i64 %27, 16
  %49 = getelementptr inbounds [12 x i32], [12 x i32]* @__const.main.monthday, i64 0, i64 %48
  %50 = bitcast i32* %49 to <4 x i32>*
  %51 = load <4 x i32>, <4 x i32>* %50, align 16, !tbaa !5
  %52 = getelementptr inbounds i32, i32* %49, i64 4
  %53 = bitcast i32* %52 to <4 x i32>*
  %54 = load <4 x i32>, <4 x i32>* %53, align 16, !tbaa !5
  %55 = add <4 x i32> %51, %46
  %56 = add <4 x i32> %54, %47
  %57 = or i64 %27, 24
  %58 = getelementptr inbounds [12 x i32], [12 x i32]* @__const.main.monthday, i64 0, i64 %57
  %59 = bitcast i32* %58 to <4 x i32>*
  %60 = load <4 x i32>, <4 x i32>* %59, align 16, !tbaa !5
  %61 = getelementptr inbounds i32, i32* %58, i64 4
  %62 = bitcast i32* %61 to <4 x i32>*
  %63 = load <4 x i32>, <4 x i32>* %62, align 16, !tbaa !5
  %64 = add <4 x i32> %60, %55
  %65 = add <4 x i32> %63, %56
  %66 = add nuw i64 %27, 32
  %67 = add i64 %30, -4
  %68 = icmp eq i64 %67, 0
  br i1 %68, label %69, label %26, !llvm.loop !9

69:                                               ; preds = %26, %16
  %70 = phi <4 x i32> [ undef, %16 ], [ %64, %26 ]
  %71 = phi <4 x i32> [ undef, %16 ], [ %65, %26 ]
  %72 = phi i64 [ 0, %16 ], [ %66, %26 ]
  %73 = phi <4 x i32> [ zeroinitializer, %16 ], [ %64, %26 ]
  %74 = phi <4 x i32> [ zeroinitializer, %16 ], [ %65, %26 ]
  %75 = icmp eq i64 %22, 0
  br i1 %75, label %92, label %76

76:                                               ; preds = %69, %76
  %77 = phi i64 [ %89, %76 ], [ %72, %69 ]
  %78 = phi <4 x i32> [ %87, %76 ], [ %73, %69 ]
  %79 = phi <4 x i32> [ %88, %76 ], [ %74, %69 ]
  %80 = phi i64 [ %90, %76 ], [ %22, %69 ]
  %81 = getelementptr inbounds [12 x i32], [12 x i32]* @__const.main.monthday, i64 0, i64 %77
  %82 = bitcast i32* %81 to <4 x i32>*
  %83 = load <4 x i32>, <4 x i32>* %82, align 16, !tbaa !5
  %84 = getelementptr inbounds i32, i32* %81, i64 4
  %85 = bitcast i32* %84 to <4 x i32>*
  %86 = load <4 x i32>, <4 x i32>* %85, align 16, !tbaa !5
  %87 = add <4 x i32> %83, %78
  %88 = add <4 x i32> %86, %79
  %89 = add nuw i64 %77, 8
  %90 = add i64 %80, -1
  %91 = icmp eq i64 %90, 0
  br i1 %91, label %92, label %76, !llvm.loop !12

92:                                               ; preds = %76, %69
  %93 = phi <4 x i32> [ %70, %69 ], [ %87, %76 ]
  %94 = phi <4 x i32> [ %71, %69 ], [ %88, %76 ]
  %95 = add <4 x i32> %94, %93
  %96 = call i32 @llvm.vector.reduce.add.v4i32(<4 x i32> %95)
  %97 = icmp eq i64 %14, %17
  br i1 %97, label %110, label %98

98:                                               ; preds = %12, %92
  %99 = phi i64 [ 1, %12 ], [ %18, %92 ]
  %100 = phi i32 [ 0, %12 ], [ %96, %92 ]
  br label %101

101:                                              ; preds = %98, %101
  %102 = phi i64 [ %108, %101 ], [ %99, %98 ]
  %103 = phi i32 [ %107, %101 ], [ %100, %98 ]
  %104 = add nsw i64 %102, -1
  %105 = getelementptr inbounds [12 x i32], [12 x i32]* @__const.main.monthday, i64 0, i64 %104
  %106 = load i32, i32* %105, align 4, !tbaa !5
  %107 = add nsw i32 %106, %103
  %108 = add nuw nsw i64 %102, 1
  %109 = icmp eq i64 %108, %13
  br i1 %109, label %110, label %101, !llvm.loop !14

110:                                              ; preds = %101, %92
  %111 = phi i32 [ %96, %92 ], [ %107, %101 ]
  %112 = load i32, i32* %3, align 4, !tbaa !5
  %113 = add nsw i32 %112, %111
  %114 = icmp sgt i32 %8, 2
  br i1 %114, label %115, label %127

115:                                              ; preds = %110
  %116 = load i32, i32* %1, align 4, !tbaa !5
  %117 = and i32 %116, 3
  %118 = icmp eq i32 %117, 0
  %119 = srem i32 %116, 100
  %120 = icmp ne i32 %119, 0
  %121 = and i1 %118, %120
  %122 = srem i32 %116, 400
  %123 = icmp eq i32 %122, 0
  %124 = select i1 %121, i1 true, i1 %123
  %125 = zext i1 %124 to i32
  %126 = add nsw i32 %113, %125
  br label %127

127:                                              ; preds = %10, %115, %110
  %128 = phi i32 [ %113, %110 ], [ %126, %115 ], [ %11, %10 ]
  %129 = call i32 (i8*, ...) @printf(i8* nonnull dereferenceable(1) getelementptr inbounds ([4 x i8], [4 x i8]* @.str.1, i64 0, i64 0), i32 %128)
  call void @llvm.lifetime.end.p0i8(i64 4, i8* nonnull %6) #4
  call void @llvm.lifetime.end.p0i8(i64 4, i8* nonnull %5) #4
  call void @llvm.lifetime.end.p0i8(i64 4, i8* nonnull %4) #4
  ret i32 0
}

; Function Attrs: argmemonly mustprogress nofree nosync nounwind willreturn
declare void @llvm.lifetime.start.p0i8(i64 immarg, i8* nocapture) #1

; Function Attrs: nofree nounwind
declare noundef i32 @__isoc99_scanf(i8* nocapture noundef readonly, ...) local_unnamed_addr #2

; Function Attrs: nofree nounwind
declare noundef i32 @printf(i8* nocapture noundef readonly, ...) local_unnamed_addr #2

; Function Attrs: argmemonly mustprogress nofree nosync nounwind willreturn
declare void @llvm.lifetime.end.p0i8(i64 immarg, i8* nocapture) #1

; Function Attrs: nofree nosync nounwind readnone willreturn
declare i32 @llvm.vector.reduce.add.v4i32(<4 x i32>) #3


!llvm.module.flags = !{!0, !1, !2, !3}
!llvm.ident = !{!4}

!0 = !{i32 1, !"wchar_size", i32 4}
!1 = !{i32 7, !"PIC Level", i32 2}
!2 = !{i32 7, !"PIE Level", i32 2}
!3 = !{i32 7, !"uwtable", i32 1}
!4 = !{!"clang version 13.0.0"}
!5 = !{!6, !6, i64 0}
!6 = !{!"int", !7, i64 0}
!7 = !{!"omnipotent char", !8, i64 0}
!8 = !{!"Simple C/C++ TBAA"}
!9 = distinct !{!9, !10, !11}
!10 = !{!"llvm.loop.mustprogress"}
!11 = !{!"llvm.loop.isvectorized", i32 1}
!12 = distinct !{!12, !13}
!13 = !{!"llvm.loop.unroll.disable"}
!14 = distinct !{!14, !10, !15, !11}
!15 = !{!"llvm.loop.unroll.runtime.disable"}
